target datalayout = "e-m:e-p270:32:32-p271:32:32-p272:64:64-i64:64-i128:128-f80:128-n8:16:32:64-S128"
target triple = "x86_64-unknown-linux-gnu"

%"class.std::__shared_count" = type { ptr }
%"class.arrow::Status" = type { ptr }
%"class.std::shared_ptr.49" = type { %"class.std::__shared_ptr.50" }
%"class.std::__shared_ptr.50" = type { ptr, %"class.std::__shared_count" }
%"class.arrow::Result" = type <{ %"class.arrow::Status", %"class.arrow::internal::AlignedStorage", [7 x i8] }>
%"class.arrow::internal::AlignedStorage" = type { %"union.std::aligned_storage<1, 1>::type" }
%"union.std::aligned_storage<1, 1>::type" = type { [1 x i8] }
%"class.std::unique_ptr.111" = type { %"struct.std::__uniq_ptr_data.112" }
%"struct.std::__uniq_ptr_data.112" = type { %"class.std::__uniq_ptr_impl.113" }
%"class.std::__uniq_ptr_impl.113" = type { %"class.std::tuple.114" }
%"class.std::tuple.114" = type { %"struct.std::_Tuple_impl.115" }
%"struct.std::_Tuple_impl.115" = type { %"struct.std::_Tuple_impl.116", %"struct.std::_Head_base.118" }
%"struct.std::_Tuple_impl.116" = type { %"struct.std::_Head_base.117" }
%"struct.std::_Head_base.117" = type { ptr }
%"struct.std::_Head_base.118" = type { ptr }
%"class.arrow::FutureImpl" = type { ptr, %"class.std::enable_shared_from_this", %"struct.std::atomic", %"class.std::unique_ptr.111", %"class.std::vector" }
%"class.std::enable_shared_from_this" = type { %"class.std::weak_ptr" }
%"class.std::weak_ptr" = type { %"class.std::__weak_ptr" }
%"class.std::__weak_ptr" = type { ptr, %"class.std::__weak_count" }
%"class.std::__weak_count" = type { ptr }
%"struct.std::atomic" = type { i8 }
%"class.std::vector" = type { %"struct.std::_Vector_base" }
%"struct.std::_Vector_base" = type { %"struct.std::_Vector_base<arrow::FutureImpl::CallbackRecord, std::allocator<arrow::FutureImpl::CallbackRecord>>::_Vector_impl" }
%"struct.std::_Vector_base<arrow::FutureImpl::CallbackRecord, std::allocator<arrow::FutureImpl::CallbackRecord>>::_Vector_impl" = type { %"struct.std::_Vector_base<arrow::FutureImpl::CallbackRecord, std::allocator<arrow::FutureImpl::CallbackRecord>>::_Vector_impl_data" }
%"struct.std::_Vector_base<arrow::FutureImpl::CallbackRecord, std::allocator<arrow::FutureImpl::CallbackRecord>>::_Vector_impl_data" = type { ptr, ptr, ptr }
%"struct.arrow::internal::FnOnce<void (const arrow::FutureImpl &)>::Impl" = type { ptr }
%"struct.arrow::Future<>::WrapStatusyOnComplete::Callback.215" = type { %class.anon.216 }
%class.anon.216 = type { %"class.std::shared_ptr.49" }
%"struct.arrow::internal::FnOnce<void (const arrow::FutureImpl &)>::FnImpl.217" = type { %"struct.arrow::internal::FnOnce<void (const arrow::FutureImpl &)>::Impl", %"struct.arrow::Future<>::WrapStatusyOnComplete::Callback.215" }

; Function Attrs: mustprogress nounwind uwtable
define linkonce_odr noundef nonnull align 8 dereferenceable(8) ptr @_ZNSt10_Head_baseILm0EPvLb0EE7_M_headERKS1_(ptr noundef nonnull align 8 dereferenceable(8) %__b) #2 comdat align 2 {
entry:
  %__b.addr = alloca ptr, align 8
  store ptr %__b, ptr %__b.addr, align 8
  %0 = load ptr, ptr %__b.addr, align 8
  %_M_head_impl = getelementptr inbounds %"struct.std::_Head_base.118", ptr %0, i32 0, i32 0
  ret ptr %_M_head_impl
}

; Function Attrs: mustprogress nounwind uwtable
define linkonce_odr noundef nonnull align 8 dereferenceable(8) ptr @_ZNSt11_Tuple_implILm0EJPvPFvS0_EEE7_M_headERKS3_(ptr noundef nonnull align 8 dereferenceable(16) %__t) #2 comdat align 2 {
entry:
  %__t.addr = alloca ptr, align 8
  store ptr %__t, ptr %__t.addr, align 8
  %0 = load ptr, ptr %__t.addr, align 8
  %add.ptr = getelementptr inbounds i8, ptr %0, i64 8
  %call = call noundef nonnull align 8 dereferenceable(8) ptr @_ZNSt10_Head_baseILm0EPvLb0EE7_M_headERKS1_(ptr noundef nonnull align 8 dereferenceable(8) %add.ptr) #11
  ret ptr %call
}

; Function Attrs: mustprogress nounwind uwtable
define linkonce_odr noundef nonnull align 8 dereferenceable(8) ptr @_ZSt12__get_helperILm0EPvJPFvS0_EEERKT0_RKSt11_Tuple_implIXT_EJS3_DpT1_EE(ptr noundef nonnull align 8 dereferenceable(16) %__t) #2 comdat {
entry:
  %__t.addr = alloca ptr, align 8
  store ptr %__t, ptr %__t.addr, align 8
  %0 = load ptr, ptr %__t.addr, align 8
  %call = call noundef nonnull align 8 dereferenceable(8) ptr @_ZNSt11_Tuple_implILm0EJPvPFvS0_EEE7_M_headERKS3_(ptr noundef nonnull align 8 dereferenceable(16) %0) #11
  ret ptr %call
}

; Function Attrs: mustprogress nounwind uwtable
define internal noundef ptr @_ZNKSt12__shared_ptrIN5arrow4util12_GLOBAL__N_131ThrottledAsyncTaskSchedulerImplELN9__gnu_cxx12_Lock_policyE2EE3getEv(ptr noundef nonnull align 8 dereferenceable(16) %this) #2 align 2 {
entry:
  %this.addr = alloca ptr, align 8
  store ptr %this, ptr %this.addr, align 8
  %this1 = load ptr, ptr %this.addr, align 8
  %_M_ptr = getelementptr inbounds %"class.std::__shared_ptr.50", ptr %this1, i32 0, i32 0
  %0 = load ptr, ptr %_M_ptr, align 8
  ret ptr %0
}

; Function Attrs: mustprogress nounwind uwtable
define linkonce_odr noundef nonnull align 8 dereferenceable(8) ptr @_ZSt3getILm0EJPvPFvS0_EEERKNSt13tuple_elementIXT_ESt5tupleIJDpT0_EEE4typeERKS7_(ptr noundef nonnull align 8 dereferenceable(16) %__t) #2 comdat {
entry:
  %__t.addr = alloca ptr, align 8
  store ptr %__t, ptr %__t.addr, align 8
  %0 = load ptr, ptr %__t.addr, align 8
  %call = call noundef nonnull align 8 dereferenceable(8) ptr @_ZSt12__get_helperILm0EPvJPFvS0_EEERKT0_RKSt11_Tuple_implIXT_EJS3_DpT1_EE(ptr noundef nonnull align 8 dereferenceable(16) %0) #11
  ret ptr %call
}

; Function Attrs: mustprogress nounwind uwtable
define internal noundef ptr @_ZNKSt19__shared_ptr_accessIN5arrow4util12_GLOBAL__N_131ThrottledAsyncTaskSchedulerImplELN9__gnu_cxx12_Lock_policyE2ELb0ELb0EE6_M_getEv(ptr noundef nonnull align 1 dereferenceable(1) %this) #2 align 2 {
entry:
  %this.addr = alloca ptr, align 8
  store ptr %this, ptr %this.addr, align 8
  %this1 = load ptr, ptr %this.addr, align 8
  %call = call noundef ptr @_ZNKSt12__shared_ptrIN5arrow4util12_GLOBAL__N_131ThrottledAsyncTaskSchedulerImplELN9__gnu_cxx12_Lock_policyE2EE3getEv(ptr noundef nonnull align 8 dereferenceable(16) %this1) #11
  ret ptr %call
}

; Function Attrs: mustprogress nounwind uwtable
define linkonce_odr noundef ptr @_ZNKSt15__uniq_ptr_implIvPFvPvEE6_M_ptrEv(ptr noundef nonnull align 8 dereferenceable(16) %this) #2 comdat align 2 {
entry:
  %this.addr = alloca ptr, align 8
  store ptr %this, ptr %this.addr, align 8
  %this1 = load ptr, ptr %this.addr, align 8
  %_M_t = getelementptr inbounds %"class.std::__uniq_ptr_impl.113", ptr %this1, i32 0, i32 0
  %call = call noundef nonnull align 8 dereferenceable(8) ptr @_ZSt3getILm0EJPvPFvS0_EEERKNSt13tuple_elementIXT_ESt5tupleIJDpT0_EEE4typeERKS7_(ptr noundef nonnull align 8 dereferenceable(16) %_M_t) #11
  %0 = load ptr, ptr %call, align 8
  ret ptr %0
}

; Function Attrs: mustprogress nounwind uwtable
define internal noundef ptr @_ZNKSt19__shared_ptr_accessIN5arrow4util12_GLOBAL__N_131ThrottledAsyncTaskSchedulerImplELN9__gnu_cxx12_Lock_policyE2ELb0ELb0EEptEv(ptr noundef nonnull align 1 dereferenceable(1) %this) #2 align 2 {
entry:
  %this.addr = alloca ptr, align 8
  store ptr %this, ptr %this.addr, align 8
  %this1 = load ptr, ptr %this.addr, align 8
  %call = call noundef ptr @_ZNKSt19__shared_ptr_accessIN5arrow4util12_GLOBAL__N_131ThrottledAsyncTaskSchedulerImplELN9__gnu_cxx12_Lock_policyE2ELb0ELb0EE6_M_getEv(ptr noundef nonnull align 1 dereferenceable(1) %this1) #11
  ret ptr %call
}

; Function Attrs: mustprogress nounwind uwtable
define linkonce_odr noundef zeroext i1 @_ZNK5arrow6Status2okEv(ptr noundef nonnull align 8 dereferenceable(8) %this) #2 comdat align 2 {
entry:
  %this.addr = alloca ptr, align 8
  store ptr %this, ptr %this.addr, align 8
  %this1 = load ptr, ptr %this.addr, align 8
  %state_ = getelementptr inbounds %"class.arrow::Status", ptr %this1, i32 0, i32 0
  %0 = load ptr, ptr %state_, align 8
  %cmp = icmp eq ptr %0, null
  ret i1 %cmp
}

; Function Attrs: mustprogress nounwind uwtable
define linkonce_odr noundef ptr @_ZNKSt10unique_ptrIvPFvPvEE3getEv(ptr noundef nonnull align 8 dereferenceable(16) %this) #2 comdat align 2 {
entry:
  %this.addr = alloca ptr, align 8
  store ptr %this, ptr %this.addr, align 8
  %this1 = load ptr, ptr %this.addr, align 8
  %_M_t = getelementptr inbounds %"class.std::unique_ptr.111", ptr %this1, i32 0, i32 0
  %call = call noundef ptr @_ZNKSt15__uniq_ptr_implIvPFvPvEE6_M_ptrEv(ptr noundef nonnull align 8 dereferenceable(16) %_M_t) #11
  ret ptr %call
}

; Function Attrs: mustprogress uwtable
define internal void @_ZZZN5arrow4util12_GLOBAL__N_131ThrottledAsyncTaskSchedulerImpl13ContinueTasksEvENKUlvE_clEvENKUlRKNS_6StatusEE_clES6_(ptr noundef nonnull align 8 dereferenceable(16) %this, ptr noundef nonnull align 8 dereferenceable(8) %st) #0 align 2 {
entry:
  %this.addr = alloca ptr, align 8
  %st.addr = alloca ptr, align 8
  store ptr %this, ptr %this.addr, align 8
  store ptr %st, ptr %st.addr, align 8
  %this1 = load ptr, ptr %this.addr, align 8
  %0 = load ptr, ptr %st.addr, align 8
  %call = call noundef zeroext i1 @_ZNK5arrow6Status2okEv(ptr noundef nonnull align 8 dereferenceable(8) %0)
  br i1 %call, label %if.then, label %if.end

if.then:                                          ; preds = %entry
  %1 = getelementptr inbounds %class.anon.216, ptr %this1, i32 0, i32 0
  %call2 = call noundef ptr @_ZNKSt19__shared_ptr_accessIN5arrow4util12_GLOBAL__N_131ThrottledAsyncTaskSchedulerImplELN9__gnu_cxx12_Lock_policyE2ELb0ELb0EEptEv(ptr noundef nonnull align 1 dereferenceable(1) %1) #11
  call void @_ZN5arrow4util12_GLOBAL__N_131ThrottledAsyncTaskSchedulerImpl13ContinueTasksEv(ptr noundef nonnull align 8 dereferenceable(88) %call2)
  br label %if.end

if.end:                                           ; preds = %if.then, %entry
  ret void
}

; Function Attrs: mustprogress nounwind uwtable
define linkonce_odr noundef nonnull align 8 dereferenceable(8) ptr @_ZNK5arrow6ResultINS_8internal5EmptyEE6statusEv(ptr noundef nonnull align 8 dereferenceable(9) %this) #2 comdat align 2 {
entry:
  %this.addr = alloca ptr, align 8
  store ptr %this, ptr %this.addr, align 8
  %this1 = load ptr, ptr %this.addr, align 8
  %status_ = getelementptr inbounds %"class.arrow::Result", ptr %this1, i32 0, i32 0
  ret ptr %status_
}

; Function Attrs: mustprogress nounwind uwtable
define linkonce_odr noundef ptr @_ZNK5arrow10FutureImpl10CastResultINS_8internal5EmptyEEEPNS_6ResultIT_EEv(ptr noundef nonnull align 8 dereferenceable(72) %this) #2 comdat align 2 {
entry:
  %this.addr = alloca ptr, align 8
  store ptr %this, ptr %this.addr, align 8
  %this1 = load ptr, ptr %this.addr, align 8
  %result_ = getelementptr inbounds %"class.arrow::FutureImpl", ptr %this1, i32 0, i32 3
  %call = call noundef ptr @_ZNKSt10unique_ptrIvPFvPvEE3getEv(ptr noundef nonnull align 8 dereferenceable(16) %result_) #11
  ret ptr %call
}

; Function Attrs: mustprogress uwtable
define internal void @_ZNO5arrow6FutureINS_8internal5EmptyEE21WrapStatusyOnComplete8CallbackIZZNS_4util12_GLOBAL__N_131ThrottledAsyncTaskSchedulerImpl13ContinueTasksEvENKUlvE_clEvEUlRKNS_6StatusEE_EclERKNS_10FutureImplE(ptr noundef nonnull align 8 dereferenceable(16) %this, ptr noundef nonnull align 8 dereferenceable(72) %impl) #0 align 2 {
entry:
  %this.addr = alloca ptr, align 8
  %impl.addr = alloca ptr, align 8
  store ptr %this, ptr %this.addr, align 8
  store ptr %impl, ptr %impl.addr, align 8
  %this1 = load ptr, ptr %this.addr, align 8
  %on_complete = getelementptr inbounds %"struct.arrow::Future<>::WrapStatusyOnComplete::Callback.215", ptr %this1, i32 0, i32 0
  %0 = load ptr, ptr %impl.addr, align 8
  %call = call noundef ptr @_ZNK5arrow10FutureImpl10CastResultINS_8internal5EmptyEEEPNS_6ResultIT_EEv(ptr noundef nonnull align 8 dereferenceable(72) %0)
  %call2 = call noundef nonnull align 8 dereferenceable(8) ptr @_ZNK5arrow6ResultINS_8internal5EmptyEE6statusEv(ptr noundef nonnull align 8 dereferenceable(9) %call)
  call void @_ZZZN5arrow4util12_GLOBAL__N_131ThrottledAsyncTaskSchedulerImpl13ContinueTasksEvENKUlvE_clEvENKUlRKNS_6StatusEE_clES6_(ptr noundef nonnull align 8 dereferenceable(16) %on_complete, ptr noundef nonnull align 8 dereferenceable(8) %call2)
  ret void
}

; Function Attrs: mustprogress uwtable
define internal void @_ZN5arrow8internal6FnOnceIFvRKNS_10FutureImplEEE6FnImplINS_6FutureINS0_5EmptyEE21WrapStatusyOnComplete8CallbackIZZNS_4util12_GLOBAL__N_131ThrottledAsyncTaskSchedulerImpl13ContinueTasksEvENKUlvE_clEvEUlRKNS_6StatusEE_EEE6invokeES4_(ptr noundef nonnull align 8 dereferenceable(24) %this, ptr noundef nonnull align 8 dereferenceable(72) %a) unnamed_addr #0 align 2 {
entry:
  %this.addr = alloca ptr, align 8
  %a.addr = alloca ptr, align 8
  store ptr %this, ptr %this.addr, align 8
  store ptr %a, ptr %a.addr, align 8
  %this1 = load ptr, ptr %this.addr, align 8
  %fn_ = getelementptr inbounds %"struct.arrow::internal::FnOnce<void (const arrow::FutureImpl &)>::FnImpl.217", ptr %this1, i32 0, i32 1
  %0 = load ptr, ptr %a.addr, align 8
  call void @_ZNO5arrow6FutureINS_8internal5EmptyEE21WrapStatusyOnComplete8CallbackIZZNS_4util12_GLOBAL__N_131ThrottledAsyncTaskSchedulerImpl13ContinueTasksEvENKUlvE_clEvEUlRKNS_6StatusEE_EclERKNS_10FutureImplE(ptr noundef nonnull align 8 dereferenceable(16) %fn_, ptr noundef nonnull align 8 dereferenceable(72) %0)
  ret void
}