; Function Attrs: mustprogress uwtable
define internal void @_ZN5arrow8internal6FnOnceIFvRKNS_10FutureImplEEE6FnImplINS_6FutureINS0_5EmptyEE21WrapStatusyOnComplete8CallbackIZZNS_4util12_GLOBAL__N_131ThrottledAsyncTaskSchedulerImpl13ContinueTasksEvENKUlvE_clEvEUlRKNS_6StatusEE_EEE6invokeES4_(ptr nocapture noundef nonnull readonly align 8 dereferenceable(24) %this, ptr nocapture noundef nonnull readonly align 8 dereferenceable(72) %a) unnamed_addr #0 align 2 {
entry:
  %0 = getelementptr inbounds i8, ptr %a, i64 40
  %a.val = load ptr, ptr %0, align 8
  %a.val.val = load ptr, ptr %a.val, align 8
  %cmp.i.i.i = icmp eq ptr %a.val.val, null
  br i1 %cmp.i.i.i, label %if.then.i.i, label %_ZNO5arrow6FutureINS_8internal5EmptyEE21WrapStatusyOnComplete8CallbackIZZNS_4util12_GLOBAL__N_131ThrottledAsyncTaskSchedulerImpl13ContinueTasksEvENKUlvE_clEvEUlRKNS_6StatusEE_EclERKNS_10FutureImplE.exit

if.then.i.i:                                      ; preds = %entry
  %fn_ = getelementptr inbounds i8, ptr %this, i64 8
  %fn_.val = load ptr, ptr %fn_, align 8
  tail call fastcc void @_ZN5arrow4util12_GLOBAL__N_131ThrottledAsyncTaskSchedulerImpl13ContinueTasksEv(ptr noundef nonnull align 8 dereferenceable(88) %fn_.val)
  br label %_ZNO5arrow6FutureINS_8internal5EmptyEE21WrapStatusyOnComplete8CallbackIZZNS_4util12_GLOBAL__N_131ThrottledAsyncTaskSchedulerImpl13ContinueTasksEvENKUlvE_clEvEUlRKNS_6StatusEE_EclERKNS_10FutureImplE.exit

_ZNO5arrow6FutureINS_8internal5EmptyEE21WrapStatusyOnComplete8CallbackIZZNS_4util12_GLOBAL__N_131ThrottledAsyncTaskSchedulerImpl13ContinueTasksEvENKUlvE_clEvEUlRKNS_6StatusEE_EclERKNS_10FutureImplE.exit: ; preds = %entry, %if.then.i.i
  ret void
}